target datalayout = "e-m:e-p270:32:32-p271:32:32-p272:64:64-i64:64-i128:128-f80:128-n8:16:32:64-S128"
target triple = "x86_64-pc-linux-gnu"

%"class.std::map" = type { %"class.std::_Rb_tree" }
%"class.std::_Rb_tree" = type { %"struct.std::_Rb_tree<int, std::pair<const int, std::__cxx11::basic_string<char>>, std::_Select1st<std::pair<const int, std::__cxx11::basic_string<char>>>, std::less<int>>::_Rb_tree_impl" }
%"struct.std::_Rb_tree<int, std::pair<const int, std::__cxx11::basic_string<char>>, std::_Select1st<std::pair<const int, std::__cxx11::basic_string<char>>>, std::less<int>>::_Rb_tree_impl" = type { [8 x i8], %"struct.std::_Rb_tree_header" }
%"struct.std::_Rb_tree_header" = type { %"struct.std::_Rb_tree_node_base", i64 }
%"struct.std::_Rb_tree_node_base" = type { i32, ptr, ptr, ptr }
%"class.std::__cxx11::basic_string" = type { %"struct.std::__cxx11::basic_string<char>::_Alloc_hider", i64, %union.anon }
%"struct.std::__cxx11::basic_string<char>::_Alloc_hider" = type { ptr }
%union.anon = type { i64, [8 x i8] }
%"class.std::initializer_list" = type { ptr, i64 }
%"struct.std::pair" = type { i32, %"class.std::__cxx11::basic_string" }
%"struct.std::less" = type { i8 }
%"class.std::allocator.3" = type { i8 }

@__dso_handle = external hidden global i8
@_ZN10open_spiel6hearts12pass_dir_strB5cxx11E = linkonce_odr global %"class.std::map" zeroinitializer, comdat, align 8
@_ZGVN10open_spiel6hearts12pass_dir_strB5cxx11E = linkonce_odr global i64 0, comdat($_ZN10open_spiel6hearts12pass_dir_strB5cxx11E), align 8
@.str = private unnamed_addr constant [8 x i8] c"No Pass\00", align 1
@.str.2 = private unnamed_addr constant [5 x i8] c"Left\00", align 1
@.str.3 = private unnamed_addr constant [7 x i8] c"Across\00", align 1
@.str.4 = private unnamed_addr constant [6 x i8] c"Right\00", align 1

; Function Attrs: mustprogress nounwind uwtable
define linkonce_odr void @_ZNSt15__new_allocatorISt4pairIKiNSt7__cxx1112basic_stringIcSt11char_traitsIcESaIcEEEEED2Ev(ptr noundef nonnull align 1 dereferenceable(1) %0) unnamed_addr #5 comdat align 2 {
  %2 = alloca ptr, align 8
  store ptr %0, ptr %2, align 8
  ret void
}

; Function Attrs: mustprogress nounwind uwtable
define linkonce_odr void @_ZNSt15__new_allocatorISt4pairIKiNSt7__cxx1112basic_stringIcSt11char_traitsIcESaIcEEEEEC2Ev(ptr noundef nonnull align 1 dereferenceable(1) %0) unnamed_addr #5 comdat align 2 {
  %2 = alloca ptr, align 8
  store ptr %0, ptr %2, align 8
  ret void
}

; Function Attrs: mustprogress nounwind uwtable
define linkonce_odr void @_ZNSt4pairIKiNSt7__cxx1112basic_stringIcSt11char_traitsIcESaIcEEEED2Ev(ptr noundef nonnull align 8 dereferenceable(40) %0) unnamed_addr #5 comdat align 2 {
  %2 = alloca ptr, align 8
  store ptr %0, ptr %2, align 8
  %3 = load ptr, ptr %2, align 8
  %4 = getelementptr inbounds nuw %"struct.std::pair", ptr %3, i32 0, i32 1
  call void @_ZNSt7__cxx1112basic_stringIcSt11char_traitsIcESaIcEED1Ev(ptr noundef nonnull align 8 dereferenceable(32) %4) #3
  ret void
}

; Function Attrs: mustprogress nounwind uwtable
define linkonce_odr void @_ZNSaISt4pairIKiNSt7__cxx1112basic_stringIcSt11char_traitsIcESaIcEEEEED2Ev(ptr noundef nonnull align 1 dereferenceable(1) %0) unnamed_addr #5 comdat align 2 {
  %2 = alloca ptr, align 8
  store ptr %0, ptr %2, align 8
  %3 = load ptr, ptr %2, align 8
  call void @_ZNSt15__new_allocatorISt4pairIKiNSt7__cxx1112basic_stringIcSt11char_traitsIcESaIcEEEEED2Ev(ptr noundef nonnull align 1 dereferenceable(1) %3) #3
  ret void
}

; Function Attrs: mustprogress nounwind uwtable
define linkonce_odr void @_ZNSaISt4pairIKiNSt7__cxx1112basic_stringIcSt11char_traitsIcESaIcEEEEEC2Ev(ptr noundef nonnull align 1 dereferenceable(1) %0) unnamed_addr #5 comdat align 2 {
  %2 = alloca ptr, align 8
  store ptr %0, ptr %2, align 8
  %3 = load ptr, ptr %2, align 8
  call void @_ZNSt15__new_allocatorISt4pairIKiNSt7__cxx1112basic_stringIcSt11char_traitsIcESaIcEEEEEC2Ev(ptr noundef nonnull align 1 dereferenceable(1) %3) #3
  ret void
}

; Function Attrs: uwtable
define internal void @__cxx_global_var_init.1() #0 section ".text.startup" comdat($_ZN10open_spiel6hearts12pass_dir_strB5cxx11E) personality ptr @__gxx_personality_v0 {
  %1 = alloca %"class.std::initializer_list", align 8
  %2 = alloca [4 x %"struct.std::pair"], align 8
  %3 = alloca ptr, align 8
  %4 = alloca i32, align 4
  %5 = alloca ptr, align 8
  %6 = alloca i32, align 4
  %7 = alloca i32, align 4
  %8 = alloca i32, align 4
  %9 = alloca i32, align 4
  %10 = alloca %"struct.std::less", align 1
  %11 = alloca %"class.std::allocator.3", align 1
  %12 = load atomic i8, ptr @_ZGVN10open_spiel6hearts12pass_dir_strB5cxx11E acquire, align 8
  %13 = icmp eq i8 %12, 0
  br i1 %13, label %14, label %40

14:                                               ; preds = %0
  %15 = call i32 @__cxa_guard_acquire(ptr @_ZGVN10open_spiel6hearts12pass_dir_strB5cxx11E) #3
  %16 = icmp ne i32 %15, 0
  br i1 %16, label %17, label %40

17:                                               ; preds = %14
  store ptr %2, ptr %3, align 8
  store i32 0, ptr %4, align 4
  invoke void @_ZNSt4pairIKiNSt7__cxx1112basic_stringIcSt11char_traitsIcESaIcEEEEC2IiRA8_KcTnNSt9enable_ifIXaaclsr5_PCCPE22_MoveConstructiblePairIT_T0_EEclsr5_PCCPE30_ImplicitlyMoveConvertiblePairISD_SE_EEEbE4typeELb1EEEOSD_OSE_(ptr noundef nonnull align 8 dereferenceable(40) %2, ptr noundef nonnull align 4 dereferenceable(4) %4, ptr noundef nonnull align 1 dereferenceable(8) @.str)
          to label %18 unwind label %41

18:                                               ; preds = %17
  %19 = getelementptr inbounds %"struct.std::pair", ptr %2, i64 1
  store ptr %19, ptr %3, align 8
  store i32 1, ptr %7, align 4
  invoke void @_ZNSt4pairIKiNSt7__cxx1112basic_stringIcSt11char_traitsIcESaIcEEEEC2IiRA5_KcTnNSt9enable_ifIXaaclsr5_PCCPE22_MoveConstructiblePairIT_T0_EEclsr5_PCCPE30_ImplicitlyMoveConvertiblePairISD_SE_EEEbE4typeELb1EEEOSD_OSE_(ptr noundef nonnull align 8 dereferenceable(40) %19, ptr noundef nonnull align 4 dereferenceable(4) %7, ptr noundef nonnull align 1 dereferenceable(5) @.str.2)
          to label %20 unwind label %41

20:                                               ; preds = %18
  %21 = getelementptr inbounds %"struct.std::pair", ptr %2, i64 2
  store ptr %21, ptr %3, align 8
  store i32 2, ptr %8, align 4
  invoke void @_ZNSt4pairIKiNSt7__cxx1112basic_stringIcSt11char_traitsIcESaIcEEEEC2IiRA7_KcTnNSt9enable_ifIXaaclsr5_PCCPE22_MoveConstructiblePairIT_T0_EEclsr5_PCCPE30_ImplicitlyMoveConvertiblePairISD_SE_EEEbE4typeELb1EEEOSD_OSE_(ptr noundef nonnull align 8 dereferenceable(40) %21, ptr noundef nonnull align 4 dereferenceable(4) %8, ptr noundef nonnull align 1 dereferenceable(7) @.str.3)
          to label %22 unwind label %41

22:                                               ; preds = %20
  %23 = getelementptr inbounds %"struct.std::pair", ptr %2, i64 3
  store ptr %23, ptr %3, align 8
  store i32 3, ptr %9, align 4
  invoke void @_ZNSt4pairIKiNSt7__cxx1112basic_stringIcSt11char_traitsIcESaIcEEEEC2IiRA6_KcTnNSt9enable_ifIXaaclsr5_PCCPE22_MoveConstructiblePairIT_T0_EEclsr5_PCCPE30_ImplicitlyMoveConvertiblePairISD_SE_EEEbE4typeELb1EEEOSD_OSE_(ptr noundef nonnull align 8 dereferenceable(40) %23, ptr noundef nonnull align 4 dereferenceable(4) %9, ptr noundef nonnull align 1 dereferenceable(6) @.str.4)
          to label %24 unwind label %41

24:                                               ; preds = %22
  %25 = getelementptr inbounds nuw %"class.std::initializer_list", ptr %1, i32 0, i32 0
  store ptr %2, ptr %25, align 8
  %26 = getelementptr inbounds nuw %"class.std::initializer_list", ptr %1, i32 0, i32 1
  store i64 4, ptr %26, align 8
  call void @_ZNSaISt4pairIKiNSt7__cxx1112basic_stringIcSt11char_traitsIcESaIcEEEEEC2Ev(ptr noundef nonnull align 1 dereferenceable(1) %11) #3
  %27 = getelementptr inbounds nuw { ptr, i64 }, ptr %1, i32 0, i32 0
  %28 = load ptr, ptr %27, align 8
  %29 = getelementptr inbounds nuw { ptr, i64 }, ptr %1, i32 0, i32 1
  %30 = load i64, ptr %29, align 8
  invoke void @_ZNSt3mapIiNSt7__cxx1112basic_stringIcSt11char_traitsIcESaIcEEESt4lessIiESaISt4pairIKiS5_EEEC2ESt16initializer_listISA_ERKS7_RKSB_(ptr noundef nonnull align 8 dereferenceable(48) @_ZN10open_spiel6hearts12pass_dir_strB5cxx11E, ptr %28, i64 %30, ptr noundef nonnull align 1 dereferenceable(1) %10, ptr noundef nonnull align 1 dereferenceable(1) %11)
          to label %31 unwind label %52

31:                                               ; preds = %24
  call void @_ZNSaISt4pairIKiNSt7__cxx1112basic_stringIcSt11char_traitsIcESaIcEEEEED2Ev(ptr noundef nonnull align 1 dereferenceable(1) %11) #3
  %32 = getelementptr inbounds [4 x %"struct.std::pair"], ptr %2, i32 0, i32 0
  %33 = getelementptr inbounds %"struct.std::pair", ptr %32, i64 4
  br label %34

34:                                               ; preds = %34, %31
  %35 = phi ptr [ %33, %31 ], [ %36, %34 ]
  %36 = getelementptr inbounds %"struct.std::pair", ptr %35, i64 -1
  call void @_ZNSt4pairIKiNSt7__cxx1112basic_stringIcSt11char_traitsIcESaIcEEEED2Ev(ptr noundef nonnull align 8 dereferenceable(40) %36) #3
  %37 = icmp eq ptr %36, %32
  br i1 %37, label %38, label %34

38:                                               ; preds = %34
  %39 = call i32 @__cxa_atexit(ptr @_ZNSt3mapIiNSt7__cxx1112basic_stringIcSt11char_traitsIcESaIcEEESt4lessIiESaISt4pairIKiS5_EEED2Ev, ptr @_ZN10open_spiel6hearts12pass_dir_strB5cxx11E, ptr @__dso_handle) #3
  call void @__cxa_guard_release(ptr @_ZGVN10open_spiel6hearts12pass_dir_strB5cxx11E) #3
  br label %40

40:                                               ; preds = %38, %14, %0
  ret void

41:                                               ; preds = %22, %20, %18, %17
  %42 = landingpad { ptr, i32 }
          cleanup
  %43 = extractvalue { ptr, i32 } %42, 0
  store ptr %43, ptr %5, align 8
  %44 = extractvalue { ptr, i32 } %42, 1
  store i32 %44, ptr %6, align 4
  %45 = load ptr, ptr %3, align 8
  %46 = icmp eq ptr %2, %45
  br i1 %46, label %51, label %47

47:                                               ; preds = %47, %41
  %48 = phi ptr [ %45, %41 ], [ %49, %47 ]
  %49 = getelementptr inbounds %"struct.std::pair", ptr %48, i64 -1
  call void @_ZNSt4pairIKiNSt7__cxx1112basic_stringIcSt11char_traitsIcESaIcEEEED2Ev(ptr noundef nonnull align 8 dereferenceable(40) %49) #3
  %50 = icmp eq ptr %49, %2
  br i1 %50, label %51, label %47

51:                                               ; preds = %47, %41
  br label %63

52:                                               ; preds = %24
  %53 = landingpad { ptr, i32 }
          cleanup
  %54 = extractvalue { ptr, i32 } %53, 0
  store ptr %54, ptr %5, align 8
  %55 = extractvalue { ptr, i32 } %53, 1
  store i32 %55, ptr %6, align 4
  call void @_ZNSaISt4pairIKiNSt7__cxx1112basic_stringIcSt11char_traitsIcESaIcEEEEED2Ev(ptr noundef nonnull align 1 dereferenceable(1) %11) #3
  %56 = getelementptr inbounds [4 x %"struct.std::pair"], ptr %2, i32 0, i32 0
  %57 = getelementptr inbounds %"struct.std::pair", ptr %56, i64 4
  br label %58

58:                                               ; preds = %58, %52
  %59 = phi ptr [ %57, %52 ], [ %60, %58 ]
  %60 = getelementptr inbounds %"struct.std::pair", ptr %59, i64 -1
  call void @_ZNSt4pairIKiNSt7__cxx1112basic_stringIcSt11char_traitsIcESaIcEEEED2Ev(ptr noundef nonnull align 8 dereferenceable(40) %60) #3
  %61 = icmp eq ptr %60, %56
  br i1 %61, label %62, label %58

62:                                               ; preds = %58
  br label %63

63:                                               ; preds = %62, %51
  call void @__cxa_guard_abort(ptr @_ZGVN10open_spiel6hearts12pass_dir_strB5cxx11E) #3
  br label %64

64:                                               ; preds = %63
  %65 = load ptr, ptr %5, align 8
  %66 = load i32, ptr %6, align 4
  %67 = insertvalue { ptr, i32 } poison, ptr %65, 0
  %68 = insertvalue { ptr, i32 } %67, i32 %66, 1
  resume { ptr, i32 } %68
}