; Function Attrs: uwtable
define internal void @__cxx_global_var_init.1() #3 section ".text.startup" comdat($_ZN10open_spiel6hearts12pass_dir_strB5cxx11E) personality ptr @__gxx_personality_v0 {
  %1 = alloca [4 x %"struct.std::pair"], align 8
  %2 = alloca i32, align 4
  %3 = alloca i32, align 4
  %4 = alloca i32, align 4
  %5 = alloca i32, align 4
  %6 = alloca %"struct.std::less", align 1
  %7 = alloca %"class.std::allocator.3", align 1
  %8 = load atomic i8, ptr @_ZGVN10open_spiel6hearts12pass_dir_strB5cxx11E acquire, align 8
  %9 = icmp eq i8 %8, 0
  br i1 %9, label %10, label %30

10:                                               ; preds = %0
  %11 = tail call i32 @__cxa_guard_acquire(ptr nonnull @_ZGVN10open_spiel6hearts12pass_dir_strB5cxx11E) #25
  %.not = icmp eq i32 %11, 0
  br i1 %.not, label %30, label %12

12:                                               ; preds = %10
  store i32 0, ptr %2, align 4
  invoke void @_ZNSt4pairIKiNSt7__cxx1112basic_stringIcSt11char_traitsIcESaIcEEEEC2IiRA8_KcTnNSt9enable_ifIXaaclsr5_PCCPE22_MoveConstructiblePairIT_T0_EEclsr5_PCCPE30_ImplicitlyMoveConvertiblePairISD_SE_EEEbE4typeELb1EEEOSD_OSE_(ptr noundef nonnull align 8 dereferenceable(40) %1, ptr noundef nonnull align 4 dereferenceable(4) %2, ptr noundef nonnull align 1 dereferenceable(8) @.str)
          to label %14 unwind label %.thread

.thread:                                          ; preds = %12
  %13 = landingpad { ptr, i32 }
          cleanup
  br label %.loopexit

14:                                               ; preds = %12
  %15 = getelementptr inbounds i8, ptr %1, i64 40
  store i32 1, ptr %3, align 4
  invoke void @_ZNSt4pairIKiNSt7__cxx1112basic_stringIcSt11char_traitsIcESaIcEEEEC2IiRA5_KcTnNSt9enable_ifIXaaclsr5_PCCPE22_MoveConstructiblePairIT_T0_EEclsr5_PCCPE30_ImplicitlyMoveConvertiblePairISD_SE_EEEbE4typeELb1EEEOSD_OSE_(ptr noundef nonnull align 8 dereferenceable(40) %15, ptr noundef nonnull align 4 dereferenceable(4) %3, ptr noundef nonnull align 1 dereferenceable(5) @.str.2)
          to label %16 unwind label %31

16:                                               ; preds = %14
  %17 = getelementptr inbounds i8, ptr %1, i64 80
  store i32 2, ptr %4, align 4
  invoke void @_ZNSt4pairIKiNSt7__cxx1112basic_stringIcSt11char_traitsIcESaIcEEEEC2IiRA7_KcTnNSt9enable_ifIXaaclsr5_PCCPE22_MoveConstructiblePairIT_T0_EEclsr5_PCCPE30_ImplicitlyMoveConvertiblePairISD_SE_EEEbE4typeELb1EEEOSD_OSE_(ptr noundef nonnull align 8 dereferenceable(40) %17, ptr noundef nonnull align 4 dereferenceable(4) %4, ptr noundef nonnull align 1 dereferenceable(7) @.str.3)
          to label %18 unwind label %31

18:                                               ; preds = %16
  %19 = getelementptr inbounds i8, ptr %1, i64 120
  store i32 3, ptr %5, align 4
  invoke void @_ZNSt4pairIKiNSt7__cxx1112basic_stringIcSt11char_traitsIcESaIcEEEEC2IiRA6_KcTnNSt9enable_ifIXaaclsr5_PCCPE22_MoveConstructiblePairIT_T0_EEclsr5_PCCPE30_ImplicitlyMoveConvertiblePairISD_SE_EEEbE4typeELb1EEEOSD_OSE_(ptr noundef nonnull align 8 dereferenceable(40) %19, ptr noundef nonnull align 4 dereferenceable(4) %5, ptr noundef nonnull align 1 dereferenceable(6) @.str.4)
          to label %20 unwind label %31

20:                                               ; preds = %18
  invoke void @_ZNSt3mapIiNSt7__cxx1112basic_stringIcSt11char_traitsIcESaIcEEESt4lessIiESaISt4pairIKiS5_EEEC2ESt16initializer_listISA_ERKS7_RKSB_(ptr noundef nonnull align 8 dereferenceable(48) @_ZN10open_spiel6hearts12pass_dir_strB5cxx11E, ptr nonnull %1, i64 4, ptr noundef nonnull align 1 dereferenceable(1) %6, ptr noundef nonnull align 1 dereferenceable(1) %7)
          to label %21 unwind label %38

21:                                               ; preds = %20
  %22 = getelementptr inbounds i8, ptr %1, i64 160
  br label %23

23:                                               ; preds = %23, %21
  %24 = phi ptr [ %22, %21 ], [ %25, %23 ]
  %25 = getelementptr inbounds i8, ptr %24, i64 -40
  %26 = getelementptr inbounds i8, ptr %24, i64 -32
  call void @_ZNSt7__cxx1112basic_stringIcSt11char_traitsIcESaIcEED1Ev(ptr noundef nonnull align 8 dereferenceable(32) %26) #25
  %27 = icmp eq ptr %25, %1
  br i1 %27, label %28, label %23

28:                                               ; preds = %23
  %29 = call i32 @__cxa_atexit(ptr nonnull @_ZNSt3mapIiNSt7__cxx1112basic_stringIcSt11char_traitsIcESaIcEEESt4lessIiESaISt4pairIKiS5_EEED2Ev, ptr nonnull @_ZN10open_spiel6hearts12pass_dir_strB5cxx11E, ptr nonnull @__dso_handle) #25
  call void @__cxa_guard_release(ptr nonnull @_ZGVN10open_spiel6hearts12pass_dir_strB5cxx11E) #25
  br label %30

30:                                               ; preds = %28, %10, %0
  ret void

31:                                               ; preds = %18, %16, %14
  %.03 = phi ptr [ %19, %18 ], [ %17, %16 ], [ %15, %14 ]
  %32 = landingpad { ptr, i32 }
          cleanup
  br label %33

33:                                               ; preds = %31, %33
  %34 = phi ptr [ %.03, %31 ], [ %35, %33 ]
  %35 = getelementptr inbounds i8, ptr %34, i64 -40
  %36 = getelementptr inbounds i8, ptr %34, i64 -32
  call void @_ZNSt7__cxx1112basic_stringIcSt11char_traitsIcESaIcEED1Ev(ptr noundef nonnull align 8 dereferenceable(32) %36) #25
  %37 = icmp eq ptr %35, %1
  br i1 %37, label %.loopexit, label %33

38:                                               ; preds = %20
  %39 = landingpad { ptr, i32 }
          cleanup
  %40 = getelementptr inbounds i8, ptr %1, i64 160
  br label %41

41:                                               ; preds = %41, %38
  %42 = phi ptr [ %40, %38 ], [ %43, %41 ]
  %43 = getelementptr inbounds i8, ptr %42, i64 -40
  %44 = getelementptr inbounds i8, ptr %42, i64 -32
  call void @_ZNSt7__cxx1112basic_stringIcSt11char_traitsIcESaIcEED1Ev(ptr noundef nonnull align 8 dereferenceable(32) %44) #25
  %45 = icmp eq ptr %43, %1
  br i1 %45, label %.loopexit, label %41

.loopexit:                                        ; preds = %33, %41, %.thread
  %.pn = phi { ptr, i32 } [ %13, %.thread ], [ %39, %41 ], [ %32, %33 ]
  call void @__cxa_guard_abort(ptr nonnull @_ZGVN10open_spiel6hearts12pass_dir_strB5cxx11E) #25
  resume { ptr, i32 } %.pn
}